(lp0
S'http://www.minecraftwiki.net/wiki/Minecraft'
p1
aS'http://www.minecraftwiki.net/wiki/Pocket_Edition'
p2
aS'http://www.minecraftwiki.net/wiki/Xbox_360_Edition'
p3
aS'http://www.minecraftwiki.net/wiki/Xbox_360_Edition_version_history'
p4
aS'http://www.minecraftwiki.net/wiki/Pocket_Edition_version_history'
p5
aS'http://www.minecraftwiki.net/wiki/Pocket_Edition_upcoming_features'
p6
aS'http://www.minecraftwiki.net/wiki/Xbox_360_Edition_upcoming_features'
p7
aS'http://www.minecraftwiki.net/wiki/Xbox_One_Edition_version_history'
p8
aS'http://www.minecraftwiki.net/wiki/Xbox_One_Edition_upcoming_features'
p9
aS'http://www.minecraftwiki.net/wiki/Pi_Edition_version_history'
p10
aS'http://www.minecraftwiki.net/wiki/Pi_Edition_upcoming_features'
p11
aS'http://www.minecraftwiki.net/wiki/Mojang_AB'
p12
aS'http://www.minecraftwiki.net/wiki/Markus_Persson'
p13
aS'http://www.minecraftwiki.net/wiki/Apple'
p14
aS'http://www.minecraftwiki.net/wiki/Golden_Apple'
p15
aS'http://www.minecraftwiki.net/wiki/Food'
p16
aS'http://www.minecraftwiki.net/wiki/Items'
p17
aS'http://www.minecraftwiki.net/wiki/Item_(entity)'
p18
aS'http://www.minecraftwiki.net/wiki/Health'
p19
aS'http://www.minecraftwiki.net/wiki/Hunger'
p20
aS'http://www.minecraftwiki.net/wiki/Adventure_Update'
p21
aS'http://www.minecraftwiki.net/wiki/Adventure'
p22
aS'http://www.minecraftwiki.net/wiki/Game_Mode'
p23
aS'http://www.minecraftwiki.net/wiki/Tutorials'
p24
aS'http://www.minecraftwiki.net/wiki/Tutorials/Beginner%27s_guide'
p25
aS'http://www.minecraftwiki.net/wiki/Survival_(Game_Mode)'
p26
aS'http://www.minecraftwiki.net/wiki/Survival_(disambiguation)'
p27
aS'http://www.minecraftwiki.net/wiki/Survival'
p28
aS'http://www.minecraftwiki.net/wiki/Gameplay'
p29
aS'http://www.minecraftwiki.net/wiki/Day-night_cycle#Sunset.2FDusk'
p30
aS'http://www.minecraftwiki.net/wiki/Light'
p31
aS'http://www.minecraftwiki.net/wiki/Mobs'
p32
aS'http://www.minecraftwiki.net/wiki/Entity'
p33
aS'http://www.minecraftwiki.net/wiki/Tile_entity'
p34
aS'http://www.minecraftwiki.net/wiki/Blocks'
p35
aS'http://www.minecraftwiki.net/wiki/Blocking'
p36
aS'http://www.minecraftwiki.net/wiki/The_Player'
p37
aS'http://www.minecraftwiki.net/wiki/Steve_(mob)'
p38
aS'http://www.minecraftwiki.net/wiki/Spawn'
p39
aS'http://www.minecraftwiki.net/wiki/Monster_Spawner'
p40
aS'http://www.minecraftwiki.net/wiki/Tutorials/Mob_Farm'
p41
aS'http://www.minecraftwiki.net/wiki/Tutorials/Monster_Spawner_Traps'
p42
aS'http://www.minecraftwiki.net/wiki/Mob_Spawner'
p43
aS'http://www.minecraftwiki.net/wiki/Opacity'
p44
aS'http://www.minecraftwiki.net/wiki/Ice'
p45
aS'http://www.minecraftwiki.net/wiki/Explosion#Blast_resistance'
p46
aS'http://www.minecraftwiki.net/wiki/Redstone'
p47
aS'http://www.minecraftwiki.net/wiki/Redstone_Wire'
p48
aS'http://www.minecraftwiki.net/wiki/Tripwire'
p49
aS'http://www.minecraftwiki.net/wiki/Renewable_resource'
p50
aS'http://www.minecraftwiki.net/wiki/Survival_(game_mode)'
p51
aS'http://www.minecraftwiki.net/wiki/Data_values'
p52
aS'http://www.minecraftwiki.net/wiki/Redstone_(disambiguation)'
p53
aS'http://www.minecraftwiki.net/wiki/Crafting'
p54
aS'http://www.minecraftwiki.net/wiki/Chicken'
p55
aS'http://www.minecraftwiki.net/wiki/Pickaxe'
p56
aS'http://www.minecraftwiki.net/wiki/Glass'
p57
aS'http://www.minecraftwiki.net/wiki/Block'
p58
aS'http://www.minecraftwiki.net/wiki/Dungeons'
p59
aS'http://www.minecraftwiki.net/wiki/Spawn#Mob_Spawning'
p60
aS'http://www.minecraftwiki.net/wiki/Dungeon'
p61
aS'http://www.minecraftwiki.net/wiki/Bed'
p62
aS'http://www.minecraftwiki.net/wiki/Drops#Common_drops'
p63
aS'http://www.minecraftwiki.net/wiki/Armor'
p64
aS'http://www.minecraftwiki.net/wiki/Third_person_view'
p65
aS'http://www.minecraftwiki.net/wiki/Water'
p66
aS'http://www.minecraftwiki.net/wiki/Chunk_format#Tile_Entity_Format'
p67
aS'http://www.minecraftwiki.net/wiki/Fire'
p68
aS'http://www.minecraftwiki.net/wiki/Player'
p69
aS'http://www.minecraftwiki.net/wiki/Tree'
p70
aS'http://www.minecraftwiki.net/wiki/Sun'
p71
aS'http://www.minecraftwiki.net/wiki/Biome'
p72
aS'http://www.minecraftwiki.net/wiki/Inventory'
p73
aS'http://www.minecraftwiki.net/wiki/Server'
p74
aS'http://www.minecraftwiki.net/wiki/Item'
p75
aS'http://www.minecraftwiki.net/wiki/Controls'
p76
aS'http://www.minecraftwiki.net/wiki/Tutorials/The_second_day'
p77
aS'http://www.minecraftwiki.net/wiki/Seed_(level_generation)'
p78
aS'http://www.minecraftwiki.net/wiki/Griefing'
p79
aS'http://www.minecraftwiki.net/wiki/Beta'
p80
aS'http://www.minecraftwiki.net/wiki/Sprint'
p81
aS'http://www.minecraftwiki.net/wiki/Damage#Fall_damage'
p82
aS'http://www.minecraftwiki.net/wiki/Torch'
p83
aS'http://www.minecraftwiki.net/wiki/Item_Frame'
p84
aS'http://www.minecraftwiki.net/wiki/Survival_Mode'
p85
aS'http://www.minecraftwiki.net/wiki/Golden_Carrot'
p86
aS'http://www.minecraftwiki.net/wiki/Creative'
p87
aS'http://www.minecraftwiki.net/wiki/Carl_Manneh'
p88
aS'http://www.minecraftwiki.net/wiki/Jakob_Pors%C3%A9r'
p89
aS'http://www.minecraftwiki.net/wiki/4J_Studios'
p90
aS'http://www.minecraftwiki.net/wiki/Pocket_Edition_version_history#0.5.0'
p91
aS'http://www.minecraftwiki.net/wiki/Help:Contents'
p92
aS'http://www.minecraftwiki.net/wiki/Xbox_One_Edition'
p93
aS'http://www.minecraftwiki.net/wiki/Texture_pack'
p94
aS'http://www.minecraftwiki.net/wiki/Realms'
p95
aS'http://www.minecraftwiki.net/wiki/Pi_Edition'
p96
aS'http://www.minecraftwiki.net/wiki/Slabs'
p97
aS'http://www.minecraftwiki.net/wiki/Xbox_360_Edition_version_history#TU11'
p98
aS'http://www.minecraftwiki.net/wiki/Jens_Bergensten'
p99
aS'http://www.minecraftwiki.net/wiki/Notch'
p100
aS'http://www.minecraftwiki.net/wiki/Infiniminer'
p101
a.